; Function Attrs: mustprogress nofree norecurse nosync nounwind willreturn memory(argmem: read) uwtable
define noundef zeroext i1 @_ZNK7glslang13TIntermediate20isIntegralConversionENS_10TBasicTypeES1_(ptr nocapture noundef nonnull readonly align 8 dereferenceable(2024) %0, i32 noundef %1, i32 noundef %2) local_unnamed_addr #4 align 2 {
  switch i32 %1, label %24 [
    i32 8, label %4
    i32 9, label %13
    i32 4, label %15
    i32 5, label %17
    i32 6, label %19
    i32 7, label %21
    i32 10, label %22
  ]

4:                                                ; preds = %3
  switch i32 %2, label %24 [
    i32 9, label %5
    i32 10, label %25
    i32 11, label %25
  ]

5:                                                ; preds = %4
  %6 = getelementptr inbounds i8, ptr %0, i64 100
  %7 = load i32, ptr %6, align 4
  %8 = icmp sgt i32 %7, 399
  br i1 %8, label %25, label %9

9:                                                ; preds = %5
  %10 = getelementptr inbounds i8, ptr %0, i64 768
  %11 = load i32, ptr %10, align 8
  %12 = icmp eq i32 %11, 2
  br label %25

13:                                               ; preds = %3
  %14 = and i32 %2, -2
  %switch = icmp eq i32 %14, 10
  br i1 %switch, label %25, label %24

15:                                               ; preds = %3
  %16 = icmp ult i32 %2, 12
  br i1 %16, label %switch.lookup, label %24

17:                                               ; preds = %3
  %18 = icmp ult i32 %2, 12
  br i1 %18, label %switch.lookup11, label %24

19:                                               ; preds = %3
  %20 = icmp ult i32 %2, 12
  br i1 %20, label %switch.lookup16, label %24

21:                                               ; preds = %3
  %.off9 = add i32 %2, -9
  %switch10 = icmp ult i32 %.off9, 3
  br i1 %switch10, label %25, label %24

22:                                               ; preds = %3
  %23 = icmp eq i32 %2, 11
  br i1 %23, label %25, label %24

24:                                               ; preds = %19, %17, %15, %21, %13, %3, %22, %4
  br label %25

switch.lookup:                                    ; preds = %15
  %switch.cast = trunc nuw i32 %2 to i12
  %switch.downshift = lshr i12 -288, %switch.cast
  %switch.masked = trunc i12 %switch.downshift to i1
  br label %25

switch.lookup11:                                  ; preds = %17
  %switch.cast12 = trunc nuw i32 %2 to i12
  %switch.downshift14 = lshr i12 -320, %switch.cast12
  %switch.masked15 = trunc i12 %switch.downshift14 to i1
  br label %25

switch.lookup16:                                  ; preds = %19
  %switch.cast17 = trunc nuw i32 %2 to i12
  %switch.downshift19 = lshr i12 -384, %switch.cast17
  %switch.masked20 = trunc i12 %switch.downshift19 to i1
  br label %25

25:                                               ; preds = %switch.lookup16, %switch.lookup11, %switch.lookup, %22, %21, %13, %4, %4, %5, %9, %24
  %.0 = phi i1 [ false, %24 ], [ true, %5 ], [ %12, %9 ], [ true, %4 ], [ true, %4 ], [ true, %13 ], [ true, %21 ], [ true, %22 ], [ %switch.masked, %switch.lookup ], [ %switch.masked15, %switch.lookup11 ], [ %switch.masked20, %switch.lookup16 ]
  ret i1 %.0
}